target datalayout = "e-m:e-p270:32:32-p271:32:32-p272:64:64-i64:64-i128:128-f80:128-n8:16:32:64-S128"
target triple = "x86_64-pc-linux-gnu"

%struct._dcerpc_info = type { ptr, i32, i64, i8, i8, i8, i32, i32, i32, i32, i32, i32, i32, i32, ptr, ptr, ptr, ptr, %struct.anon }
%struct.anon = type { i8, ptr, ptr, ptr, i8 }
%struct._packet_info = type { ptr, ptr, i32, i32, %struct.nstime_t, %struct.nstime_t, %struct.nstime_t, i8, ptr, ptr, ptr, ptr, %struct._address, %struct._address, %struct._address, %struct._address, %struct._address, %struct._address, i32, ptr, i8, [3 x i8], %struct.anon.0, i32, i32, i32, i32, ptr, i8, ptr, ptr, i16, i16, i32, i32, i16, i32, i32, ptr, ptr, ptr, i8, i8, i16, i16, i16, i32, i16, i16, ptr, ptr, ptr, ptr, ptr, i32, i32 }
%struct.nstime_t = type { i64, i32 }
%struct._address = type { i32, i32, ptr, ptr }
%struct.anon.0 = type { i8, [3 x i8] }

@hf_fileexp_returntokenidp_high = internal global i32 0, align 4
@hf_fileexp_returntokenidp_low = internal global i32 0, align 4
@.str.376 = private unnamed_addr constant [9 x i8] c"afsFid: \00", align 1
@.str.377 = private unnamed_addr constant [8 x i8] c"MinVVp:\00", align 1
@.str.441 = private unnamed_addr constant [19 x i8] c"afsFidTaggedName: \00", align 1
@.str.448 = private unnamed_addr constant [22 x i8] c" returnTokenIDp:%u/%u\00", align 1

; Function Attrs: null_pointer_is_valid sspstrong uwtable
define internal i32 @fileexp_dissect_removedir_rqst(ptr noundef %0, i32 noundef %1, ptr noundef %2, ptr noundef %3, ptr noundef %4, ptr noundef %5) #0 {
  %7 = alloca i32, align 4
  %8 = alloca ptr, align 8
  %9 = alloca i32, align 4
  %10 = alloca ptr, align 8
  %11 = alloca ptr, align 8
  %12 = alloca ptr, align 8
  %13 = alloca ptr, align 8
  %14 = alloca i32, align 4
  %15 = alloca i32, align 4
  %16 = alloca i32, align 4
  store ptr %0, ptr %8, align 8
  store i32 %1, ptr %9, align 4
  store ptr %2, ptr %10, align 8
  store ptr %3, ptr %11, align 8
  store ptr %4, ptr %12, align 8
  store ptr %5, ptr %13, align 8
  call void @llvm.lifetime.start.p0(i64 4, ptr %14) #4
  call void @llvm.lifetime.start.p0(i64 4, ptr %15) #4
  %17 = load ptr, ptr %12, align 8
  %18 = getelementptr inbounds nuw %struct._dcerpc_info, ptr %17, i32 0, i32 4
  %19 = load i8, ptr %18, align 1, !range !6, !noundef !7
  %20 = trunc i8 %19 to i1
  br i1 %20, label %21, label %23

21:                                               ; preds = %6
  %22 = load i32, ptr %9, align 4
  store i32 %22, ptr %7, align 4
  store i32 1, ptr %16, align 4
  br label %74

23:                                               ; preds = %6
  %24 = load ptr, ptr %8, align 8
  %25 = load i32, ptr %9, align 4
  %26 = load ptr, ptr %10, align 8
  %27 = load ptr, ptr %11, align 8
  %28 = load ptr, ptr %12, align 8
  %29 = load ptr, ptr %13, align 8
  %30 = call i32 @dissect_ndr_pointer(ptr noundef %24, i32 noundef %25, ptr noundef %26, ptr noundef %27, ptr noundef %28, ptr noundef %29, ptr noundef @dissect_afsFid, i32 noundef 1, ptr noundef @.str.376, i32 noundef -1)
  store i32 %30, ptr %9, align 4
  %31 = load ptr, ptr %8, align 8
  %32 = load i32, ptr %9, align 4
  %33 = load ptr, ptr %10, align 8
  %34 = load ptr, ptr %11, align 8
  %35 = load ptr, ptr %12, align 8
  %36 = load ptr, ptr %13, align 8
  %37 = call i32 @dissect_ndr_pointer(ptr noundef %31, i32 noundef %32, ptr noundef %33, ptr noundef %34, ptr noundef %35, ptr noundef %36, ptr noundef @dissect_afsfidtaggedname, i32 noundef 1, ptr noundef @.str.441, i32 noundef -1)
  store i32 %37, ptr %9, align 4
  %38 = load ptr, ptr %8, align 8
  %39 = load i32, ptr %9, align 4
  %40 = load ptr, ptr %10, align 8
  %41 = load ptr, ptr %11, align 8
  %42 = load ptr, ptr %12, align 8
  %43 = load ptr, ptr %13, align 8
  %44 = load i32, ptr @hf_fileexp_returntokenidp_high, align 4
  %45 = call i32 @dissect_ndr_uint32(ptr noundef %38, i32 noundef %39, ptr noundef %40, ptr noundef %41, ptr noundef %42, ptr noundef %43, i32 noundef %44, ptr noundef %14)
  store i32 %45, ptr %9, align 4
  %46 = load ptr, ptr %8, align 8
  %47 = load i32, ptr %9, align 4
  %48 = load ptr, ptr %10, align 8
  %49 = load ptr, ptr %11, align 8
  %50 = load ptr, ptr %12, align 8
  %51 = load ptr, ptr %13, align 8
  %52 = load i32, ptr @hf_fileexp_returntokenidp_low, align 4
  %53 = call i32 @dissect_ndr_uint32(ptr noundef %46, i32 noundef %47, ptr noundef %48, ptr noundef %49, ptr noundef %50, ptr noundef %51, i32 noundef %52, ptr noundef %15)
  store i32 %53, ptr %9, align 4
  %54 = load ptr, ptr %10, align 8
  %55 = getelementptr inbounds nuw %struct._packet_info, ptr %54, i32 0, i32 1
  %56 = load ptr, ptr %55, align 8
  %57 = load i32, ptr %14, align 4
  %58 = load i32, ptr %15, align 4
  call void (ptr, i32, ptr, ...) @col_append_fstr(ptr noundef %56, i32 noundef 25, ptr noundef @.str.448, i32 noundef %57, i32 noundef %58)
  %59 = load ptr, ptr %8, align 8
  %60 = load i32, ptr %9, align 4
  %61 = load ptr, ptr %10, align 8
  %62 = load ptr, ptr %11, align 8
  %63 = load ptr, ptr %12, align 8
  %64 = load ptr, ptr %13, align 8
  %65 = call i32 @dissect_ndr_pointer(ptr noundef %59, i32 noundef %60, ptr noundef %61, ptr noundef %62, ptr noundef %63, ptr noundef %64, ptr noundef @dissect_minvvp, i32 noundef 1, ptr noundef @.str.377, i32 noundef -1)
  store i32 %65, ptr %9, align 4
  %66 = load ptr, ptr %8, align 8
  %67 = load i32, ptr %9, align 4
  %68 = load ptr, ptr %10, align 8
  %69 = load ptr, ptr %11, align 8
  %70 = load ptr, ptr %12, align 8
  %71 = load ptr, ptr %13, align 8
  %72 = call i32 @dissect_afsFlags(ptr noundef %66, i32 noundef %67, ptr noundef %68, ptr noundef %69, ptr noundef %70, ptr noundef %71)
  store i32 %72, ptr %9, align 4
  %73 = load i32, ptr %9, align 4
  store i32 %73, ptr %7, align 4
  store i32 1, ptr %16, align 4
  br label %74

74:                                               ; preds = %23, %21
  call void @llvm.lifetime.end.p0(i64 4, ptr %15) #4
  call void @llvm.lifetime.end.p0(i64 4, ptr %14) #4
  %75 = load i32, ptr %7, align 4
  ret i32 %75
}