; Function Attrs: null_pointer_is_valid sspstrong uwtable
define internal i32 @fileexp_dissect_removedir_rqst(ptr noundef %0, i32 noundef %1, ptr noundef %2, ptr noundef %3, ptr noundef %4, ptr noundef %5) #0 {
  %7 = alloca i32, align 4
  %8 = alloca i32, align 4
  call void @llvm.lifetime.start.p0(i64 4, ptr nonnull %7) #4
  call void @llvm.lifetime.start.p0(i64 4, ptr nonnull %8) #4
  %9 = getelementptr inbounds nuw i8, ptr %4, i64 25
  %10 = load i8, ptr %9, align 1, !range !6, !noundef !7
  %11 = trunc nuw i8 %10 to i1
  br i1 %11, label %25, label %12

12:                                               ; preds = %6
  %13 = tail call i32 @dissect_ndr_pointer(ptr noundef %0, i32 noundef %1, ptr noundef %2, ptr noundef %3, ptr noundef %4, ptr noundef %5, ptr noundef nonnull @dissect_afsFid, i32 noundef 1, ptr noundef nonnull @.str.376, i32 noundef -1)
  %14 = tail call i32 @dissect_ndr_pointer(ptr noundef %0, i32 noundef %13, ptr noundef %2, ptr noundef %3, ptr noundef %4, ptr noundef %5, ptr noundef nonnull @dissect_afsfidtaggedname, i32 noundef 1, ptr noundef nonnull @.str.441, i32 noundef -1)
  %15 = load i32, ptr @hf_fileexp_returntokenidp_high, align 4
  %16 = call i32 @dissect_ndr_uint32(ptr noundef %0, i32 noundef %14, ptr noundef %2, ptr noundef %3, ptr noundef %4, ptr noundef %5, i32 noundef %15, ptr noundef nonnull %7)
  %17 = load i32, ptr @hf_fileexp_returntokenidp_low, align 4
  %18 = call i32 @dissect_ndr_uint32(ptr noundef %0, i32 noundef %16, ptr noundef %2, ptr noundef %3, ptr noundef %4, ptr noundef %5, i32 noundef %17, ptr noundef nonnull %8)
  %19 = getelementptr inbounds nuw i8, ptr %2, i64 8
  %20 = load ptr, ptr %19, align 8
  %21 = load i32, ptr %7, align 4
  %22 = load i32, ptr %8, align 4
  call void (ptr, i32, ptr, ...) @col_append_fstr(ptr noundef %20, i32 noundef 25, ptr noundef nonnull @.str.448, i32 noundef %21, i32 noundef %22)
  %23 = call i32 @dissect_ndr_pointer(ptr noundef %0, i32 noundef %18, ptr noundef %2, ptr noundef %3, ptr noundef %4, ptr noundef %5, ptr noundef nonnull @dissect_minvvp, i32 noundef 1, ptr noundef nonnull @.str.377, i32 noundef -1)
  %24 = call i32 @dissect_afsFlags(ptr noundef %0, i32 noundef %23, ptr noundef %2, ptr noundef %3, ptr noundef %4, ptr noundef %5)
  br label %25

25:                                               ; preds = %6, %12
  %.0 = phi i32 [ %24, %12 ], [ %1, %6 ]
  call void @llvm.lifetime.end.p0(i64 4, ptr nonnull %8) #4
  call void @llvm.lifetime.end.p0(i64 4, ptr nonnull %7) #4
  ret i32 %.0
}